target datalayout = "e-m:e-p270:32:32-p271:32:32-p272:64:64-i64:64-i128:128-f80:128-n8:16:32:64-S128"
target triple = "x86_64-unknown-linux-gnu"

%struct.QemuMutex = type { %union.pthread_mutex_t, i8 }
%union.pthread_mutex_t = type { %struct.__pthread_mutex_s }
%struct.__pthread_mutex_s = type { i32, i32, i32, i32, i32, i16, i16, %struct.__pthread_internal_list }
%struct.__pthread_internal_list = type { ptr, ptr }
%struct.BlockDriverState = type { i32, i8, i8, i8, i8, i8, ptr, ptr, ptr, %struct.anon.0, i8, [4096 x i8], [4096 x i8], [4096 x i8], [16 x i8], ptr, [4096 x i8], %struct.BlockLimits, i32, i32, i32, i32, [32 x i8], %union.anon, %union.anon.1, %union.anon.2, i32, [16 x %struct.anon.3], ptr, %struct.anon.4, ptr, ptr, %struct.anon.5, ptr, ptr, i32, ptr, i64, i64, %struct.QemuMutex, %struct.anon.6, %struct.Stat64, i32, i32, i32, i32, i32, i32, %struct.QemuMutex, %struct.anon.7, %struct.CoQueue, i8, i32, i8, %struct.CoMutex, ptr, ptr }
%struct.anon.0 = type { ptr }
%struct.BlockLimits = type { i32, i64, i32, i64, i32, i32, i32, i64, i32, i64, i64, i32, i8, i32, i32, i32, i32, i32, i32, i32 }
%union.anon = type { %struct.QTailQLink }
%struct.QTailQLink = type { ptr, ptr }
%union.anon.1 = type { %struct.QTailQLink }
%union.anon.2 = type { %struct.QTailQLink }
%struct.anon.3 = type { ptr }
%struct.anon.4 = type { ptr }
%struct.anon.5 = type { ptr }
%struct.anon.6 = type { ptr }
%struct.Stat64 = type { i64 }
%struct.anon.7 = type { ptr }
%struct.CoQueue = type { %struct.anon.8 }
%struct.anon.8 = type { ptr, ptr }
%struct.CoMutex = type { i32, ptr, %struct.anon.9, %struct.anon.9, i32, i32, ptr }
%struct.anon.9 = type { ptr }
%struct.MirrorBDSOpaque = type { ptr, i8, i8 }
%struct.MirrorBlockJob = type { %struct.BlockJob, ptr, ptr, ptr, ptr, ptr, ptr, ptr, i8, i32, i8, i32, i32, i32, i8, i8, i64, i64, i64, ptr, ptr, ptr, ptr, %struct.anon.14, i32, i64, ptr, i32, i64, %union.anon.15, i32, i8, i32, i32, i8, i32, i64, i8, i8 }
%struct.BlockJob = type { %struct.Job, i32, i64, %struct.RateLimit, ptr, %struct.Notifier, %struct.Notifier, %struct.Notifier, %struct.Notifier, %struct.Notifier, ptr }
%struct.Job = type { ptr, ptr, ptr, i8, i8, ptr, ptr, %struct.ProgressMeter, ptr, i32, i32, %struct.QEMUTimer, i32, i8, i8, i8, i8, i8, i8, i32, ptr, %struct.NotifierList, %struct.NotifierList, %struct.NotifierList, %struct.NotifierList, %struct.NotifierList, %struct.anon.11, ptr, %struct.anon.12 }
%struct.ProgressMeter = type { i64, i64, %struct.QemuMutex }
%struct.QEMUTimer = type { i64, ptr, ptr, ptr, ptr, i32, i32 }
%struct.NotifierList = type { %struct.anon.10 }
%struct.anon.10 = type { ptr }
%struct.anon.11 = type { ptr, ptr }
%struct.anon.12 = type { ptr, ptr }
%struct.RateLimit = type { %struct.QemuMutex, i64, i64, i64, i64, i64 }
%struct.Notifier = type { ptr, %struct.anon.13 }
%struct.anon.13 = type { ptr, ptr }
%struct.anon.14 = type { ptr, ptr }
%union.anon.15 = type { %struct.QTailQLink }
%struct.QEMUIOVector = type { ptr, i32, %union.anon.18 }
%union.anon.18 = type { %struct.anon.19 }
%struct.anon.19 = type { i32, %struct.iovec }
%struct.iovec = type { ptr, i64 }
%struct.MirrorOp = type { ptr, %struct.QEMUIOVector, i64, i64, ptr, i8, i8, i8, %struct.CoQueue, ptr, ptr, %union.anon.21 }
%union.anon.21 = type { %struct.QTailQLink }

@.str.1 = private unnamed_addr constant [23 x i8] c"../qemu/block/mirror.c\00", align 1
@__func__.bdrv_mirror_top_do_write = private unnamed_addr constant [25 x i8] c"bdrv_mirror_top_do_write\00", align 1

; Function Attrs: nounwind sspstrong uwtable
define internal ptr @active_write_prepare(ptr noundef %s, i64 noundef %offset, i64 noundef %bytes) #0 {
entry:
  %s.addr = alloca ptr, align 8
  %offset.addr = alloca i64, align 8
  %bytes.addr = alloca i64, align 8
  %op = alloca ptr, align 8
  %start_chunk = alloca i64, align 8
  %end_chunk = alloca i64, align 8
  %.compoundliteral = alloca %struct.MirrorOp, align 8
  store ptr %s, ptr %s.addr, align 8
  store i64 %offset, ptr %offset.addr, align 8
  store i64 %bytes, ptr %bytes.addr, align 8
  %0 = load i64, ptr %offset.addr, align 8
  %1 = load ptr, ptr %s.addr, align 8
  %granularity = getelementptr inbounds %struct.MirrorBlockJob, ptr %1, i32 0, i32 16
  %2 = load i64, ptr %granularity, align 8
  %div = udiv i64 %0, %2
  store i64 %div, ptr %start_chunk, align 8
  %3 = load i64, ptr %offset.addr, align 8
  %4 = load i64, ptr %bytes.addr, align 8
  %add = add i64 %3, %4
  %5 = load ptr, ptr %s.addr, align 8
  %granularity1 = getelementptr inbounds %struct.MirrorBlockJob, ptr %5, i32 0, i32 16
  %6 = load i64, ptr %granularity1, align 8
  %add2 = add i64 %add, %6
  %sub = sub i64 %add2, 1
  %7 = load ptr, ptr %s.addr, align 8
  %granularity3 = getelementptr inbounds %struct.MirrorBlockJob, ptr %7, i32 0, i32 16
  %8 = load i64, ptr %granularity3, align 8
  %div4 = udiv i64 %sub, %8
  store i64 %div4, ptr %end_chunk, align 8
  %call = call noalias ptr @g_malloc_n(i64 noundef 1, i64 noundef 128) #10
  store ptr %call, ptr %op, align 8
  %9 = load ptr, ptr %op, align 8
  %s5 = getelementptr inbounds %struct.MirrorOp, ptr %.compoundliteral, i32 0, i32 0
  %10 = load ptr, ptr %s.addr, align 8
  store ptr %10, ptr %s5, align 8
  %qiov = getelementptr inbounds %struct.MirrorOp, ptr %.compoundliteral, i32 0, i32 1
  call void @llvm.memset.p0.i64(ptr align 8 %qiov, i8 0, i64 40, i1 false)
  %offset6 = getelementptr inbounds %struct.MirrorOp, ptr %.compoundliteral, i32 0, i32 2
  %11 = load i64, ptr %offset.addr, align 8
  store i64 %11, ptr %offset6, align 8
  %bytes7 = getelementptr inbounds %struct.MirrorOp, ptr %.compoundliteral, i32 0, i32 3
  %12 = load i64, ptr %bytes.addr, align 8
  store i64 %12, ptr %bytes7, align 8
  %bytes_handled = getelementptr inbounds %struct.MirrorOp, ptr %.compoundliteral, i32 0, i32 4
  store ptr null, ptr %bytes_handled, align 8
  %is_pseudo_op = getelementptr inbounds %struct.MirrorOp, ptr %.compoundliteral, i32 0, i32 5
  store i8 0, ptr %is_pseudo_op, align 8
  %is_active_write = getelementptr inbounds %struct.MirrorOp, ptr %.compoundliteral, i32 0, i32 6
  store i8 1, ptr %is_active_write, align 1
  %is_in_flight = getelementptr inbounds %struct.MirrorOp, ptr %.compoundliteral, i32 0, i32 7
  store i8 1, ptr %is_in_flight, align 2
  %waiting_requests = getelementptr inbounds %struct.MirrorOp, ptr %.compoundliteral, i32 0, i32 8
  call void @llvm.memset.p0.i64(ptr align 8 %waiting_requests, i8 0, i64 16, i1 false)
  %co = getelementptr inbounds %struct.MirrorOp, ptr %.compoundliteral, i32 0, i32 9
  %call8 = call ptr @qemu_coroutine_self()
  store ptr %call8, ptr %co, align 8
  %waiting_for_op = getelementptr inbounds %struct.MirrorOp, ptr %.compoundliteral, i32 0, i32 10
  store ptr null, ptr %waiting_for_op, align 8
  %next = getelementptr inbounds %struct.MirrorOp, ptr %.compoundliteral, i32 0, i32 11
  call void @llvm.memset.p0.i64(ptr align 8 %next, i8 0, i64 16, i1 false)
  call void @llvm.memcpy.p0.p0.i64(ptr align 8 %9, ptr align 8 %.compoundliteral, i64 128, i1 false)
  %13 = load ptr, ptr %op, align 8
  %waiting_requests9 = getelementptr inbounds %struct.MirrorOp, ptr %13, i32 0, i32 8
  call void @qemu_co_queue_init(ptr noundef %waiting_requests9)
  br label %do.body

do.body:                                          ; preds = %entry
  %14 = load ptr, ptr %op, align 8
  %next10 = getelementptr inbounds %struct.MirrorOp, ptr %14, i32 0, i32 11
  store ptr null, ptr %next10, align 8
  %15 = load ptr, ptr %s.addr, align 8
  %ops_in_flight = getelementptr inbounds %struct.MirrorBlockJob, ptr %15, i32 0, i32 29
  %tql_prev = getelementptr inbounds %struct.QTailQLink, ptr %ops_in_flight, i32 0, i32 1
  %16 = load ptr, ptr %tql_prev, align 8
  %17 = load ptr, ptr %op, align 8
  %next11 = getelementptr inbounds %struct.MirrorOp, ptr %17, i32 0, i32 11
  %tql_prev12 = getelementptr inbounds %struct.QTailQLink, ptr %next11, i32 0, i32 1
  store ptr %16, ptr %tql_prev12, align 8
  %18 = load ptr, ptr %op, align 8
  %19 = load ptr, ptr %s.addr, align 8
  %ops_in_flight13 = getelementptr inbounds %struct.MirrorBlockJob, ptr %19, i32 0, i32 29
  %tql_prev14 = getelementptr inbounds %struct.QTailQLink, ptr %ops_in_flight13, i32 0, i32 1
  %20 = load ptr, ptr %tql_prev14, align 8
  %tql_next = getelementptr inbounds %struct.QTailQLink, ptr %20, i32 0, i32 0
  store ptr %18, ptr %tql_next, align 8
  %21 = load ptr, ptr %op, align 8
  %next15 = getelementptr inbounds %struct.MirrorOp, ptr %21, i32 0, i32 11
  %22 = load ptr, ptr %s.addr, align 8
  %ops_in_flight16 = getelementptr inbounds %struct.MirrorBlockJob, ptr %22, i32 0, i32 29
  %tql_prev17 = getelementptr inbounds %struct.QTailQLink, ptr %ops_in_flight16, i32 0, i32 1
  store ptr %next15, ptr %tql_prev17, align 8
  br label %do.end

do.end:                                           ; preds = %do.body
  %23 = load ptr, ptr %s.addr, align 8
  %in_active_write_counter = getelementptr inbounds %struct.MirrorBlockJob, ptr %23, i32 0, i32 35
  %24 = load i32, ptr %in_active_write_counter, align 4
  %inc = add i32 %24, 1
  store i32 %inc, ptr %in_active_write_counter, align 4
  %25 = load ptr, ptr %op, align 8
  %26 = load ptr, ptr %s.addr, align 8
  %27 = load i64, ptr %offset.addr, align 8
  %28 = load i64, ptr %bytes.addr, align 8
  call void @mirror_wait_on_conflicts(ptr noundef %25, ptr noundef %26, i64 noundef %27, i64 noundef %28)
  %29 = load ptr, ptr %s.addr, align 8
  %in_flight_bitmap = getelementptr inbounds %struct.MirrorBlockJob, ptr %29, i32 0, i32 26
  %30 = load ptr, ptr %in_flight_bitmap, align 8
  %31 = load i64, ptr %start_chunk, align 8
  %32 = load i64, ptr %end_chunk, align 8
  %33 = load i64, ptr %start_chunk, align 8
  %sub18 = sub i64 %32, %33
  call void @bitmap_set(ptr noundef %30, i64 noundef %31, i64 noundef %sub18)
  %34 = load ptr, ptr %op, align 8
  ret ptr %34
}

; Function Attrs: nounwind sspstrong uwtable
define internal i32 @bdrv_mirror_top_do_write(ptr noundef %bs, i32 noundef %method, i1 noundef zeroext %copy_to_target, i64 noundef %offset, i64 noundef %bytes, ptr noundef %qiov, i32 noundef %flags) #0 {
entry:
  %bs.addr = alloca ptr, align 8
  %method.addr = alloca i32, align 4
  %copy_to_target.addr = alloca i8, align 1
  %offset.addr = alloca i64, align 8
  %bytes.addr = alloca i64, align 8
  %qiov.addr = alloca ptr, align 8
  %flags.addr = alloca i32, align 4
  %op = alloca ptr, align 8
  %s = alloca ptr, align 8
  %ret = alloca i32, align 4
  %.atomictmp = alloca i8, align 1
  store ptr %bs, ptr %bs.addr, align 8
  store i32 %method, ptr %method.addr, align 4
  %frombool = zext i1 %copy_to_target to i8
  store i8 %frombool, ptr %copy_to_target.addr, align 1
  store i64 %offset, ptr %offset.addr, align 8
  store i64 %bytes, ptr %bytes.addr, align 8
  store ptr %qiov, ptr %qiov.addr, align 8
  store i32 %flags, ptr %flags.addr, align 4
  store ptr null, ptr %op, align 8
  %0 = load ptr, ptr %bs.addr, align 8
  %opaque = getelementptr inbounds %struct.BlockDriverState, ptr %0, i32 0, i32 7
  %1 = load ptr, ptr %opaque, align 8
  store ptr %1, ptr %s, align 8
  store i32 0, ptr %ret, align 4
  %2 = load i8, ptr %copy_to_target.addr, align 1
  %tobool = trunc i8 %2 to i1
  br i1 %tobool, label %if.then, label %if.end

if.then:                                          ; preds = %entry
  %3 = load ptr, ptr %s, align 8
  %job = getelementptr inbounds %struct.MirrorBDSOpaque, ptr %3, i32 0, i32 0
  %4 = load ptr, ptr %job, align 8
  %5 = load i64, ptr %offset.addr, align 8
  %6 = load i64, ptr %bytes.addr, align 8
  %call = call ptr @active_write_prepare(ptr noundef %4, i64 noundef %5, i64 noundef %6)
  store ptr %call, ptr %op, align 8
  br label %if.end

if.end:                                           ; preds = %if.then, %entry
  %7 = load i32, ptr %method.addr, align 4
  switch i32 %7, label %sw.default [
    i32 0, label %sw.bb
    i32 1, label %sw.bb2
    i32 2, label %sw.bb5
  ]

sw.bb:                                            ; preds = %if.end
  %8 = load ptr, ptr %bs.addr, align 8
  %backing = getelementptr inbounds %struct.BlockDriverState, ptr %8, i32 0, i32 30
  %9 = load ptr, ptr %backing, align 8
  %10 = load i64, ptr %offset.addr, align 8
  %11 = load i64, ptr %bytes.addr, align 8
  %12 = load ptr, ptr %qiov.addr, align 8
  %13 = load i32, ptr %flags.addr, align 4
  %call1 = call i32 @bdrv_co_pwritev(ptr noundef %9, i64 noundef %10, i64 noundef %11, ptr noundef %12, i32 noundef %13)
  store i32 %call1, ptr %ret, align 4
  br label %sw.epilog

sw.bb2:                                           ; preds = %if.end
  %14 = load ptr, ptr %bs.addr, align 8
  %backing3 = getelementptr inbounds %struct.BlockDriverState, ptr %14, i32 0, i32 30
  %15 = load ptr, ptr %backing3, align 8
  %16 = load i64, ptr %offset.addr, align 8
  %17 = load i64, ptr %bytes.addr, align 8
  %18 = load i32, ptr %flags.addr, align 4
  %call4 = call i32 @bdrv_co_pwrite_zeroes(ptr noundef %15, i64 noundef %16, i64 noundef %17, i32 noundef %18)
  store i32 %call4, ptr %ret, align 4
  br label %sw.epilog

sw.bb5:                                           ; preds = %if.end
  %19 = load ptr, ptr %bs.addr, align 8
  %backing6 = getelementptr inbounds %struct.BlockDriverState, ptr %19, i32 0, i32 30
  %20 = load ptr, ptr %backing6, align 8
  %21 = load i64, ptr %offset.addr, align 8
  %22 = load i64, ptr %bytes.addr, align 8
  %call7 = call i32 @bdrv_co_pdiscard(ptr noundef %20, i64 noundef %21, i64 noundef %22)
  store i32 %call7, ptr %ret, align 4
  br label %sw.epilog

sw.default:                                       ; preds = %if.end
  call void @abort() #9
  unreachable

sw.epilog:                                        ; preds = %sw.bb5, %sw.bb2, %sw.bb
  %23 = load i8, ptr %copy_to_target.addr, align 1
  %tobool8 = trunc i8 %23 to i1
  br i1 %tobool8, label %if.end20, label %land.lhs.true

land.lhs.true:                                    ; preds = %sw.epilog
  %24 = load ptr, ptr %s, align 8
  %job9 = getelementptr inbounds %struct.MirrorBDSOpaque, ptr %24, i32 0, i32 0
  %25 = load ptr, ptr %job9, align 8
  %tobool10 = icmp ne ptr %25, null
  br i1 %tobool10, label %land.lhs.true11, label %if.end20

land.lhs.true11:                                  ; preds = %land.lhs.true
  %26 = load ptr, ptr %s, align 8
  %job12 = getelementptr inbounds %struct.MirrorBDSOpaque, ptr %26, i32 0, i32 0
  %27 = load ptr, ptr %job12, align 8
  %dirty_bitmap = getelementptr inbounds %struct.MirrorBlockJob, ptr %27, i32 0, i32 20
  %28 = load ptr, ptr %dirty_bitmap, align 8
  %tobool13 = icmp ne ptr %28, null
  br i1 %tobool13, label %if.then14, label %if.end20

if.then14:                                        ; preds = %land.lhs.true11
  br label %do.body

do.body:                                          ; preds = %if.then14
  br label %while.cond

while.cond:                                       ; preds = %do.end, %do.body
  br i1 false, label %while.body, label %while.end

while.body:                                       ; preds = %while.cond
  br label %do.body15

do.body15:                                        ; preds = %while.body
  call void @g_assertion_message_expr(ptr noundef null, ptr noundef @.str.1, i32 noundef 1573, ptr noundef @__func__.bdrv_mirror_top_do_write, ptr noundef null) #11
  unreachable

do.end:                                           ; No predecessors!
  br label %while.cond

while.end:                                        ; preds = %while.cond
  %29 = load ptr, ptr %s, align 8
  %job16 = getelementptr inbounds %struct.MirrorBDSOpaque, ptr %29, i32 0, i32 0
  %30 = load ptr, ptr %job16, align 8
  %actively_synced = getelementptr inbounds %struct.MirrorBlockJob, ptr %30, i32 0, i32 14
  store i8 0, ptr %.atomictmp, align 1
  %31 = load i8, ptr %.atomictmp, align 1
  store atomic i8 %31, ptr %actively_synced monotonic, align 8
  br label %do.end17

do.end17:                                         ; preds = %while.end
  %32 = load ptr, ptr %s, align 8
  %job18 = getelementptr inbounds %struct.MirrorBDSOpaque, ptr %32, i32 0, i32 0
  %33 = load ptr, ptr %job18, align 8
  %dirty_bitmap19 = getelementptr inbounds %struct.MirrorBlockJob, ptr %33, i32 0, i32 20
  %34 = load ptr, ptr %dirty_bitmap19, align 8
  %35 = load i64, ptr %offset.addr, align 8
  %36 = load i64, ptr %bytes.addr, align 8
  call void @bdrv_set_dirty_bitmap(ptr noundef %34, i64 noundef %35, i64 noundef %36)
  br label %if.end20

if.end20:                                         ; preds = %do.end17, %land.lhs.true11, %land.lhs.true, %sw.epilog
  %37 = load i32, ptr %ret, align 4
  %cmp = icmp slt i32 %37, 0
  br i1 %cmp, label %if.then21, label %if.end22

if.then21:                                        ; preds = %if.end20
  br label %out

if.end22:                                         ; preds = %if.end20
  %38 = load i8, ptr %copy_to_target.addr, align 1
  %tobool23 = trunc i8 %38 to i1
  br i1 %tobool23, label %if.then24, label %if.end26

if.then24:                                        ; preds = %if.end22
  %39 = load ptr, ptr %s, align 8
  %job25 = getelementptr inbounds %struct.MirrorBDSOpaque, ptr %39, i32 0, i32 0
  %40 = load ptr, ptr %job25, align 8
  %41 = load i32, ptr %method.addr, align 4
  %42 = load i64, ptr %offset.addr, align 8
  %43 = load i64, ptr %bytes.addr, align 8
  %44 = load ptr, ptr %qiov.addr, align 8
  %45 = load i32, ptr %flags.addr, align 4
  call void @do_sync_target_write(ptr noundef %40, i32 noundef %41, i64 noundef %42, i64 noundef %43, ptr noundef %44, i32 noundef %45)
  br label %if.end26

if.end26:                                         ; preds = %if.then24, %if.end22
  br label %out

out:                                              ; preds = %if.end26, %if.then21
  %46 = load i8, ptr %copy_to_target.addr, align 1
  %tobool27 = trunc i8 %46 to i1
  br i1 %tobool27, label %if.then28, label %if.end29

if.then28:                                        ; preds = %out
  %47 = load ptr, ptr %op, align 8
  call void @active_write_settle(ptr noundef %47)
  br label %if.end29

if.end29:                                         ; preds = %if.then28, %out
  %48 = load i32, ptr %ret, align 4
  ret i32 %48
}