; Function Attrs: nounwind sspstrong uwtable
define internal i32 @bdrv_mirror_top_do_write(ptr noundef readonly captures(none) %bs, i32 noundef %method, i1 noundef zeroext %copy_to_target, i64 noundef %offset, i64 noundef %bytes, ptr noundef %qiov, i32 noundef %flags) #0 {
entry:
  %.compoundliteral.sroa.9.i = alloca [21 x i8], align 1
  %opaque = getelementptr inbounds nuw i8, ptr %bs, i64 24
  %0 = load ptr, ptr %opaque, align 8
  br i1 %copy_to_target, label %if.then, label %if.end

if.then:                                          ; preds = %entry
  %1 = load ptr, ptr %0, align 8
  call void @llvm.lifetime.start.p0(i64 21, ptr nonnull %.compoundliteral.sroa.9.i)
  %granularity.i = getelementptr inbounds nuw i8, ptr %1, i64 608
  %2 = load i64, ptr %granularity.i, align 8
  %div.i = udiv i64 %offset, %2
  %add.i = add i64 %offset, -1
  %add2.i = add i64 %add.i, %bytes
  %sub.i = add i64 %add2.i, %2
  %div4.i = udiv i64 %sub.i, %2
  %call.i = tail call noalias dereferenceable_or_null(128) ptr @g_malloc_n(i64 noundef 1, i64 noundef 128) #14
  %.compoundliteral.sroa.9.i.5.i.5.i.5.waiting_requests.sroa_idx = getelementptr inbounds nuw i8, ptr %.compoundliteral.sroa.9.i, i64 5
  call void @llvm.memset.p0.i64(ptr noundef nonnull align 1 dereferenceable(16) %.compoundliteral.sroa.9.i.5.i.5.i.5.waiting_requests.sroa_idx, i8 0, i64 16, i1 false)
  %call8.i = tail call ptr @qemu_coroutine_self() #12
  store ptr %1, ptr %call.i, align 8
  %.compoundliteral.sroa.2.0..sroa_idx.i = getelementptr inbounds nuw i8, ptr %call.i, i64 8
  tail call void @llvm.memset.p0.i64(ptr noundef nonnull align 8 dereferenceable(40) %.compoundliteral.sroa.2.0..sroa_idx.i, i8 0, i64 40, i1 false)
  %.compoundliteral.sroa.3.0..sroa_idx.i = getelementptr inbounds nuw i8, ptr %call.i, i64 48
  store i64 %offset, ptr %.compoundliteral.sroa.3.0..sroa_idx.i, align 8
  %.compoundliteral.sroa.4.0..sroa_idx.i = getelementptr inbounds nuw i8, ptr %call.i, i64 56
  store i64 %bytes, ptr %.compoundliteral.sroa.4.0..sroa_idx.i, align 8
  %.compoundliteral.sroa.5.0..sroa_idx.i = getelementptr inbounds nuw i8, ptr %call.i, i64 64
  store ptr null, ptr %.compoundliteral.sroa.5.0..sroa_idx.i, align 8
  %.compoundliteral.sroa.6.0..sroa_idx.i = getelementptr inbounds nuw i8, ptr %call.i, i64 72
  store i8 0, ptr %.compoundliteral.sroa.6.0..sroa_idx.i, align 8
  %.compoundliteral.sroa.7.0..sroa_idx.i = getelementptr inbounds nuw i8, ptr %call.i, i64 73
  store i8 1, ptr %.compoundliteral.sroa.7.0..sroa_idx.i, align 1
  %.compoundliteral.sroa.8.0..sroa_idx.i = getelementptr inbounds nuw i8, ptr %call.i, i64 74
  store i8 1, ptr %.compoundliteral.sroa.8.0..sroa_idx.i, align 2
  %.compoundliteral.sroa.9.0..sroa_idx.i = getelementptr inbounds nuw i8, ptr %call.i, i64 75
  call void @llvm.memcpy.p0.p0.i64(ptr noundef nonnull align 1 dereferenceable(21) %.compoundliteral.sroa.9.0..sroa_idx.i, ptr noundef nonnull align 1 dereferenceable(21) %.compoundliteral.sroa.9.i, i64 21, i1 false)
  %.compoundliteral.sroa.10.0..sroa_idx.i = getelementptr inbounds nuw i8, ptr %call.i, i64 96
  store ptr %call8.i, ptr %.compoundliteral.sroa.10.0..sroa_idx.i, align 8
  %.compoundliteral.sroa.11.0..sroa_idx.i = getelementptr inbounds nuw i8, ptr %call.i, i64 104
  %.compoundliteral.sroa.12.0..sroa_idx.i = getelementptr inbounds nuw i8, ptr %call.i, i64 112
  %waiting_requests9.i = getelementptr inbounds nuw i8, ptr %call.i, i64 80
  tail call void @llvm.memset.p0.i64(ptr noundef nonnull align 8 dereferenceable(24) %.compoundliteral.sroa.11.0..sroa_idx.i, i8 0, i64 24, i1 false)
  tail call void @qemu_co_queue_init(ptr noundef nonnull %waiting_requests9.i) #12
  store ptr null, ptr %.compoundliteral.sroa.12.0..sroa_idx.i, align 8
  %tql_prev.i = getelementptr inbounds nuw i8, ptr %1, i64 728
  %3 = load ptr, ptr %tql_prev.i, align 8
  %tql_prev12.i = getelementptr inbounds nuw i8, ptr %call.i, i64 120
  store ptr %3, ptr %tql_prev12.i, align 8
  store ptr %call.i, ptr %3, align 8
  store ptr %.compoundliteral.sroa.12.0..sroa_idx.i, ptr %tql_prev.i, align 8
  %in_active_write_counter.i = getelementptr inbounds nuw i8, ptr %1, i64 756
  %4 = load i32, ptr %in_active_write_counter.i, align 4
  %inc.i = add i32 %4, 1
  store i32 %inc.i, ptr %in_active_write_counter.i, align 4
  tail call void @mirror_wait_on_conflicts(ptr noundef nonnull %call.i, ptr noundef %1, i64 noundef %offset, i64 noundef %bytes)
  %in_flight_bitmap.i = getelementptr inbounds nuw i8, ptr %1, i64 696
  %5 = load ptr, ptr %in_flight_bitmap.i, align 8
  %sub18.i = sub i64 %div4.i, %div.i
  tail call void @bitmap_set(ptr noundef %5, i64 noundef %div.i, i64 noundef %sub18.i) #12
  call void @llvm.lifetime.end.p0(i64 21, ptr nonnull %.compoundliteral.sroa.9.i)
  br label %if.end

if.end:                                           ; preds = %if.then, %entry
  %op.0 = phi ptr [ %call.i, %if.then ], [ null, %entry ]
  switch i32 %method, label %sw.default [
    i32 0, label %sw.bb
    i32 1, label %sw.bb2
    i32 2, label %sw.bb5
  ]

sw.bb:                                            ; preds = %if.end
  %backing = getelementptr inbounds nuw i8, ptr %bs, i64 16832
  %6 = load ptr, ptr %backing, align 8
  %call1 = tail call i32 @bdrv_co_pwritev(ptr noundef %6, i64 noundef %offset, i64 noundef %bytes, ptr noundef %qiov, i32 noundef %flags) #12
  br label %sw.epilog

sw.bb2:                                           ; preds = %if.end
  %backing3 = getelementptr inbounds nuw i8, ptr %bs, i64 16832
  %7 = load ptr, ptr %backing3, align 8
  %call4 = tail call i32 @bdrv_co_pwrite_zeroes(ptr noundef %7, i64 noundef %offset, i64 noundef %bytes, i32 noundef %flags) #12
  br label %sw.epilog

sw.bb5:                                           ; preds = %if.end
  %backing6 = getelementptr inbounds nuw i8, ptr %bs, i64 16832
  %8 = load ptr, ptr %backing6, align 8
  %call7 = tail call i32 @bdrv_co_pdiscard(ptr noundef %8, i64 noundef %offset, i64 noundef %bytes) #12
  br label %sw.epilog

sw.default:                                       ; preds = %if.end
  tail call void @abort() #13
  unreachable

sw.epilog:                                        ; preds = %sw.bb5, %sw.bb2, %sw.bb
  %ret.0 = phi i32 [ %call7, %sw.bb5 ], [ %call4, %sw.bb2 ], [ %call1, %sw.bb ]
  br i1 %copy_to_target, label %if.end20, label %land.lhs.true

land.lhs.true:                                    ; preds = %sw.epilog
  %9 = load ptr, ptr %0, align 8
  %tobool10.not = icmp eq ptr %9, null
  br i1 %tobool10.not, label %if.end29, label %land.lhs.true11

land.lhs.true11:                                  ; preds = %land.lhs.true
  %dirty_bitmap = getelementptr inbounds nuw i8, ptr %9, i64 640
  %10 = load ptr, ptr %dirty_bitmap, align 8
  %tobool13.not = icmp eq ptr %10, null
  br i1 %tobool13.not, label %if.end29, label %while.end

while.end:                                        ; preds = %land.lhs.true11
  %actively_synced = getelementptr inbounds nuw i8, ptr %9, i64 600
  store atomic i8 0, ptr %actively_synced monotonic, align 8
  %11 = load ptr, ptr %0, align 8
  %dirty_bitmap19 = getelementptr inbounds nuw i8, ptr %11, i64 640
  %12 = load ptr, ptr %dirty_bitmap19, align 8
  tail call void @bdrv_set_dirty_bitmap(ptr noundef %12, i64 noundef %offset, i64 noundef %bytes) #12
  br label %if.end29

if.end20:                                         ; preds = %sw.epilog
  %cmp = icmp slt i32 %ret.0, 0
  br i1 %cmp, label %if.then28, label %if.then24

if.then24:                                        ; preds = %if.end20
  %13 = load ptr, ptr %0, align 8
  tail call void @do_sync_target_write(ptr noundef %13, i32 noundef %method, i64 noundef %offset, i64 noundef %bytes, ptr noundef %qiov, i32 noundef %flags)
  br label %if.then28

if.then28:                                        ; preds = %if.end20, %if.then24
  tail call void @active_write_settle(ptr noundef %op.0)
  br label %if.end29

if.end29:                                         ; preds = %land.lhs.true, %land.lhs.true11, %while.end, %if.then28
  ret i32 %ret.0
}